target datalayout = "e-m:e-p270:32:32-p271:32:32-p272:64:64-i64:64-i128:128-f80:128-n8:16:32:64-S128"
target triple = "x86_64-unknown-linux-gnu"

%"class.grpc_core::RefCount" = type { %"struct.std::atomic.116" }
%"struct.std::atomic.116" = type { %"struct.std::__atomic_base.117" }
%"struct.std::__atomic_base.117" = type { i64 }
%"class.grpc_core::Orphanable" = type { ptr }
%class.anon = type { %"class.grpc_core::RefCountedPtr.236" }
%"class.grpc_core::RefCountedPtr.236" = type { ptr }
%"class.grpc_core::InternallyRefCounted.231" = type { %"class.grpc_core::Orphanable", %"class.grpc_core::RefCount" }

; Function Attrs: mustprogress nounwind uwtable
define internal void @_ZNK9grpc_core11UnrefDeleteclINS_12_GLOBAL__N_116WeightedTargetLb13WeightedChild19DelayedRemovalTimerEEEvPT_(ptr noundef nonnull align 1 dereferenceable(1) %this, ptr noundef %p) #5 align 2 {
entry:
  %this.addr = alloca ptr, align 8
  %p.addr = alloca ptr, align 8
  store ptr %this, ptr %this.addr, align 8
  store ptr %p, ptr %p.addr, align 8
  %0 = load ptr, ptr %p.addr, align 8
  %isnull = icmp eq ptr %0, null
  br i1 %isnull, label %delete.end, label %delete.notnull

delete.notnull:                                   ; preds = %entry
  %vtable = load ptr, ptr %0, align 8
  %vfn = getelementptr inbounds ptr, ptr %vtable, i64 2
  %1 = load ptr, ptr %vfn, align 8
  call void %1(ptr noundef nonnull align 8 dereferenceable(48) %0) #3
  br label %delete.end

delete.end:                                       ; preds = %delete.notnull, %entry
  ret void
}

; Function Attrs: mustprogress nounwind uwtable
define linkonce_odr noundef zeroext i1 @_ZN9grpc_core8RefCount5UnrefEv(ptr noundef nonnull align 8 dereferenceable(8) %this) #5 comdat align 2 {
entry:
  %this.addr.i = alloca ptr, align 8
  %__i.addr.i = alloca i64, align 8
  %__m.addr.i = alloca i32, align 4
  %.atomictmp.i = alloca i64, align 8
  %atomic-temp.i = alloca i64, align 8
  %this.addr = alloca ptr, align 8
  %prior = alloca i64, align 8
  store ptr %this, ptr %this.addr, align 8
  %this1 = load ptr, ptr %this.addr, align 8
  %value_ = getelementptr inbounds %"class.grpc_core::RefCount", ptr %this1, i32 0, i32 0
  store ptr %value_, ptr %this.addr.i, align 8
  store i64 1, ptr %__i.addr.i, align 8
  store i32 4, ptr %__m.addr.i, align 4
  %this1.i = load ptr, ptr %this.addr.i, align 8
  %0 = load i32, ptr %__m.addr.i, align 4
  %1 = load i64, ptr %__i.addr.i, align 8
  store i64 %1, ptr %.atomictmp.i, align 8
  switch i32 %0, label %monotonic.i [
    i32 1, label %acquire.i
    i32 2, label %acquire.i
    i32 3, label %release.i
    i32 4, label %acqrel.i
    i32 5, label %seqcst.i
  ]

monotonic.i:                                      ; preds = %entry
  %2 = load i64, ptr %.atomictmp.i, align 8
  %3 = atomicrmw sub ptr %this1.i, i64 %2 monotonic, align 8
  store i64 %3, ptr %atomic-temp.i, align 8
  br label %_ZNSt13__atomic_baseIlE9fetch_subElSt12memory_order.exit

acquire.i:                                        ; preds = %entry, %entry
  %4 = load i64, ptr %.atomictmp.i, align 8
  %5 = atomicrmw sub ptr %this1.i, i64 %4 acquire, align 8
  store i64 %5, ptr %atomic-temp.i, align 8
  br label %_ZNSt13__atomic_baseIlE9fetch_subElSt12memory_order.exit

release.i:                                        ; preds = %entry
  %6 = load i64, ptr %.atomictmp.i, align 8
  %7 = atomicrmw sub ptr %this1.i, i64 %6 release, align 8
  store i64 %7, ptr %atomic-temp.i, align 8
  br label %_ZNSt13__atomic_baseIlE9fetch_subElSt12memory_order.exit

acqrel.i:                                         ; preds = %entry
  %8 = load i64, ptr %.atomictmp.i, align 8
  %9 = atomicrmw sub ptr %this1.i, i64 %8 acq_rel, align 8
  store i64 %9, ptr %atomic-temp.i, align 8
  br label %_ZNSt13__atomic_baseIlE9fetch_subElSt12memory_order.exit

seqcst.i:                                         ; preds = %entry
  %10 = load i64, ptr %.atomictmp.i, align 8
  %11 = atomicrmw sub ptr %this1.i, i64 %10 seq_cst, align 8
  store i64 %11, ptr %atomic-temp.i, align 8
  br label %_ZNSt13__atomic_baseIlE9fetch_subElSt12memory_order.exit

_ZNSt13__atomic_baseIlE9fetch_subElSt12memory_order.exit: ; preds = %seqcst.i, %acqrel.i, %release.i, %acquire.i, %monotonic.i
  %12 = load i64, ptr %atomic-temp.i, align 8
  store i64 %12, ptr %prior, align 8
  %13 = load i64, ptr %prior, align 8
  %cmp = icmp eq i64 %13, 1
  ret i1 %cmp
}

; Function Attrs: noreturn nounwind uwtable
define linkonce_odr hidden void @__clang_call_terminate(ptr noundef %0) #8 comdat {
  %2 = call ptr @__cxa_begin_catch(ptr %0) #3
  call void @_ZSt9terminatev() #18
  unreachable
}

; Function Attrs: mustprogress uwtable
define internal void @_ZN9grpc_core20InternallyRefCountedINS_12_GLOBAL__N_116WeightedTargetLb13WeightedChild19DelayedRemovalTimerENS_11UnrefDeleteEE5UnrefEv(ptr noundef nonnull align 8 dereferenceable(16) %this) #4 align 2 {
entry:
  %this.addr = alloca ptr, align 8
  store ptr %this, ptr %this.addr, align 8
  %this1 = load ptr, ptr %this.addr, align 8
  %refs_ = getelementptr inbounds %"class.grpc_core::InternallyRefCounted.231", ptr %this1, i32 0, i32 1
  %call = call noundef zeroext i1 @_ZN9grpc_core8RefCount5UnrefEv(ptr noundef nonnull align 8 dereferenceable(8) %refs_)
  br i1 %call, label %if.then, label %if.end

if.then:                                          ; preds = %entry
  call void @_ZNK9grpc_core11UnrefDeleteclINS_12_GLOBAL__N_116WeightedTargetLb13WeightedChild19DelayedRemovalTimerEEEvPT_(ptr noundef nonnull align 1 dereferenceable(1) %this1, ptr noundef %this1)
  br label %if.end

if.end:                                           ; preds = %if.then, %entry
  ret void
}

; Function Attrs: mustprogress nounwind uwtable
define internal void @_ZN9grpc_core13RefCountedPtrINS_12_GLOBAL__N_116WeightedTargetLb13WeightedChild19DelayedRemovalTimerEED2Ev(ptr noundef nonnull align 8 dereferenceable(8) %this) unnamed_addr #5 align 2 personality ptr @__gxx_personality_v0 {
entry:
  %this.addr = alloca ptr, align 8
  store ptr %this, ptr %this.addr, align 8
  %this1 = load ptr, ptr %this.addr, align 8
  %value_ = getelementptr inbounds %"class.grpc_core::RefCountedPtr.236", ptr %this1, i32 0, i32 0
  %0 = load ptr, ptr %value_, align 8
  %cmp = icmp ne ptr %0, null
  br i1 %cmp, label %if.then, label %if.end

if.then:                                          ; preds = %entry
  %value_2 = getelementptr inbounds %"class.grpc_core::RefCountedPtr.236", ptr %this1, i32 0, i32 0
  %1 = load ptr, ptr %value_2, align 8
  invoke void @_ZN9grpc_core20InternallyRefCountedINS_12_GLOBAL__N_116WeightedTargetLb13WeightedChild19DelayedRemovalTimerENS_11UnrefDeleteEE5UnrefEv(ptr noundef nonnull align 8 dereferenceable(16) %1)
          to label %invoke.cont unwind label %terminate.lpad

invoke.cont:                                      ; preds = %if.then
  br label %if.end

if.end:                                           ; preds = %invoke.cont, %entry
  ret void

terminate.lpad:                                   ; preds = %if.then
  %2 = landingpad { ptr, i32 }
          catch ptr null
  %3 = extractvalue { ptr, i32 } %2, 0
  call void @__clang_call_terminate(ptr %3) #18
  unreachable
}

; Function Attrs: mustprogress nounwind uwtable
define internal void @_ZN9grpc_core13RefCountedPtrINS_12_GLOBAL__N_116WeightedTargetLb13WeightedChild19DelayedRemovalTimerEEC2EOS5_(ptr noundef nonnull align 8 dereferenceable(8) %this, ptr noundef nonnull align 8 dereferenceable(8) %other) unnamed_addr #5 align 2 {
entry:
  %this.addr = alloca ptr, align 8
  %other.addr = alloca ptr, align 8
  store ptr %this, ptr %this.addr, align 8
  store ptr %other, ptr %other.addr, align 8
  %this1 = load ptr, ptr %this.addr, align 8
  %value_ = getelementptr inbounds %"class.grpc_core::RefCountedPtr.236", ptr %this1, i32 0, i32 0
  store ptr null, ptr %value_, align 8
  %0 = load ptr, ptr %other.addr, align 8
  %value_2 = getelementptr inbounds %"class.grpc_core::RefCountedPtr.236", ptr %0, i32 0, i32 0
  %1 = load ptr, ptr %value_2, align 8
  %value_3 = getelementptr inbounds %"class.grpc_core::RefCountedPtr.236", ptr %this1, i32 0, i32 0
  store ptr %1, ptr %value_3, align 8
  %2 = load ptr, ptr %other.addr, align 8
  %value_4 = getelementptr inbounds %"class.grpc_core::RefCountedPtr.236", ptr %2, i32 0, i32 0
  store ptr null, ptr %value_4, align 8
  ret void
}

; Function Attrs: mustprogress nounwind uwtable
define internal noundef ptr @"_ZSt7launderIZN9grpc_core12_GLOBAL__N_116WeightedTargetLb13WeightedChild19DelayedRemovalTimerC1ENS0_13RefCountedPtrIS3_EEE3$_0EPT_S9_"(ptr noundef %__p) #5 {
entry:
  %__p.addr = alloca ptr, align 8
  store ptr %__p, ptr %__p.addr, align 8
  %0 = load ptr, ptr %__p.addr, align 8
  ret ptr %0
}

; Function Attrs: mustprogress nounwind uwtable
define internal void @"_ZZN9grpc_core12_GLOBAL__N_116WeightedTargetLb13WeightedChild19DelayedRemovalTimerC1ENS_13RefCountedPtrIS2_EEEN3$_0D2Ev"(ptr noundef nonnull align 8 dereferenceable(8) %this) unnamed_addr #5 align 2 {
entry:
  %this.addr = alloca ptr, align 8
  store ptr %this, ptr %this.addr, align 8
  %this1 = load ptr, ptr %this.addr, align 8
  %0 = getelementptr inbounds %class.anon, ptr %this1, i32 0, i32 0
  call void @_ZN9grpc_core13RefCountedPtrINS_12_GLOBAL__N_116WeightedTargetLb13WeightedChild19DelayedRemovalTimerEED2Ev(ptr noundef nonnull align 8 dereferenceable(8) %0) #3
  ret void
}

; Function Attrs: mustprogress nounwind uwtable
define internal void @"_ZZN9grpc_core12_GLOBAL__N_116WeightedTargetLb13WeightedChild19DelayedRemovalTimerC1ENS_13RefCountedPtrIS2_EEEN3$_0C2EOS6_"(ptr noundef nonnull align 8 dereferenceable(8) %this, ptr noundef nonnull align 8 dereferenceable(8) %0) unnamed_addr #5 align 2 {
entry:
  %this.addr = alloca ptr, align 8
  %.addr = alloca ptr, align 8
  store ptr %this, ptr %this.addr, align 8
  store ptr %0, ptr %.addr, align 8
  %this1 = load ptr, ptr %this.addr, align 8
  %1 = getelementptr inbounds %class.anon, ptr %this1, i32 0, i32 0
  %2 = load ptr, ptr %.addr, align 8
  %3 = getelementptr inbounds %class.anon, ptr %2, i32 0, i32 0
  call void @_ZN9grpc_core13RefCountedPtrINS_12_GLOBAL__N_116WeightedTargetLb13WeightedChild19DelayedRemovalTimerEEC2EOS5_(ptr noundef nonnull align 8 dereferenceable(8) %1, ptr noundef nonnull align 8 dereferenceable(8) %3) #3
  ret void
}

; Function Attrs: mustprogress nounwind uwtable
define internal noundef nonnull align 8 dereferenceable(8) ptr @"_ZN4absl12lts_2023080222internal_any_invocable20ObjectInLocalStorageIZN9grpc_core12_GLOBAL__N_116WeightedTargetLb13WeightedChild19DelayedRemovalTimerC1ENS3_13RefCountedPtrIS6_EEE3$_0EERT_PNS1_15TypeErasedStateE"(ptr noundef %state) #5 {
entry:
  %state.addr = alloca ptr, align 8
  store ptr %state, ptr %state.addr, align 8
  %0 = load ptr, ptr %state.addr, align 8
  %call = call noundef ptr @"_ZSt7launderIZN9grpc_core12_GLOBAL__N_116WeightedTargetLb13WeightedChild19DelayedRemovalTimerC1ENS0_13RefCountedPtrIS3_EEE3$_0EPT_S9_"(ptr noundef %0) #3
  ret ptr %call
}

; Function Attrs: mustprogress nounwind uwtable
define internal void @"_ZN4absl12lts_2023080222internal_any_invocable22LocalManagerNontrivialIZN9grpc_core12_GLOBAL__N_116WeightedTargetLb13WeightedChild19DelayedRemovalTimerC1ENS3_13RefCountedPtrIS6_EEE3$_0EEvNS1_14FunctionToCallEPNS1_15TypeErasedStateESD_"(i1 noundef zeroext %operation, ptr noundef %from, ptr noundef %to) #5 {
entry:
  %operation.addr = alloca i8, align 1
  %from.addr = alloca ptr, align 8
  %to.addr = alloca ptr, align 8
  %from_object = alloca ptr, align 8
  %frombool = zext i1 %operation to i8
  store i8 %frombool, ptr %operation.addr, align 1
  store ptr %from, ptr %from.addr, align 8
  store ptr %to, ptr %to.addr, align 8
  %0 = load ptr, ptr %from.addr, align 8
  %call = call noundef nonnull align 8 dereferenceable(8) ptr @"_ZN4absl12lts_2023080222internal_any_invocable20ObjectInLocalStorageIZN9grpc_core12_GLOBAL__N_116WeightedTargetLb13WeightedChild19DelayedRemovalTimerC1ENS3_13RefCountedPtrIS6_EEE3$_0EERT_PNS1_15TypeErasedStateE"(ptr noundef %0)
  store ptr %call, ptr %from_object, align 8
  %1 = load i8, ptr %operation.addr, align 1
  %tobool = trunc i8 %1 to i1
  switch i1 %tobool, label %sw.epilog [
    i1 false, label %sw.bb
    i1 true, label %sw.bb1
  ]

sw.bb:                                            ; preds = %entry
  %2 = load ptr, ptr %to.addr, align 8
  %3 = load ptr, ptr %from_object, align 8
  call void @"_ZZN9grpc_core12_GLOBAL__N_116WeightedTargetLb13WeightedChild19DelayedRemovalTimerC1ENS_13RefCountedPtrIS2_EEEN3$_0C2EOS6_"(ptr noundef nonnull align 8 dereferenceable(8) %2, ptr noundef nonnull align 8 dereferenceable(8) %3) #3
  br label %sw.bb1

sw.bb1:                                           ; preds = %sw.bb, %entry
  %4 = load ptr, ptr %from_object, align 8
  call void @"_ZZN9grpc_core12_GLOBAL__N_116WeightedTargetLb13WeightedChild19DelayedRemovalTimerC1ENS_13RefCountedPtrIS2_EEEN3$_0D2Ev"(ptr noundef nonnull align 8 dereferenceable(8) %4) #3
  br label %do.end

sw.epilog:                                        ; preds = %entry
  br label %do.body

do.body:                                          ; preds = %sw.epilog
  unreachable

do.cond:                                          ; No predecessors!
  br label %do.end

do.end:                                           ; preds = %do.cond, %sw.bb1
  ret void
}